target datalayout = "e-m:e-p270:32:32-p271:32:32-p272:64:64-i64:64-i128:128-f80:128-n8:16:32:64-S128"
target triple = "x86_64-pc-linux-gnu"

; Function Attrs: nounwind uwtable
define void @Abc_SclLoad(ptr noundef %0, ptr noundef %1) #0 {
  %3 = alloca ptr, align 8
  %4 = alloca ptr, align 8
  store ptr %0, ptr %3, align 8, !tbaa !25
  store ptr %1, ptr %4, align 8, !tbaa !27
  %5 = load ptr, ptr %4, align 8, !tbaa !27
  %6 = load ptr, ptr %5, align 8, !tbaa !25
  %7 = icmp ne ptr %6, null
  br i1 %7, label %8, label %12

8:                                                ; preds = %2
  %9 = load ptr, ptr %4, align 8, !tbaa !27
  %10 = load ptr, ptr %9, align 8, !tbaa !25
  call void @Abc_SclLibFree(ptr noundef %10)
  %11 = load ptr, ptr %4, align 8, !tbaa !27
  store ptr null, ptr %11, align 8, !tbaa !25
  br label %12

12:                                               ; preds = %8, %2
  %13 = load ptr, ptr %3, align 8, !tbaa !25
  %14 = icmp ne ptr %13, null
  br i1 %14, label %15, label %18

15:                                               ; preds = %12
  %16 = load ptr, ptr %3, align 8, !tbaa !25
  %17 = load ptr, ptr %4, align 8, !tbaa !27
  store ptr %16, ptr %17, align 8, !tbaa !25
  br label %18

18:                                               ; preds = %15, %12
  ret void
}