; Function Attrs: nounwind uwtable
define void @Abc_SclLoad(ptr noundef %0, ptr noundef captures(none) %1) local_unnamed_addr #0 {
  %3 = load ptr, ptr %1, align 8, !tbaa !23
  %.not = icmp eq ptr %3, null
  br i1 %.not, label %5, label %4

4:                                                ; preds = %2
  tail call fastcc void @Abc_SclLibFree(ptr noundef %3)
  store ptr null, ptr %1, align 8, !tbaa !23
  br label %5

5:                                                ; preds = %4, %2
  %.not7 = icmp eq ptr %0, null
  br i1 %.not7, label %7, label %6

6:                                                ; preds = %5
  store ptr %0, ptr %1, align 8, !tbaa !23
  br label %7

7:                                                ; preds = %6, %5
  ret void
}